; Function Attrs: mustprogress nofree norecurse nosync nounwind willreturn memory(argmem: readwrite) uwtable
define internal void @calc_buffer_dimensions_tga(ptr noundef readonly captures(none) %0, ptr noundef writeonly captures(none) initializes((80, 84)) %1) #2 {
  %3 = getelementptr inbounds nuw i8, ptr %0, i64 136
  %4 = load i32, ptr %3, align 8, !tbaa !53
  %5 = getelementptr inbounds nuw i8, ptr %0, i64 148
  %6 = load i32, ptr %5, align 4, !tbaa !64
  %7 = mul i32 %6, %4
  %8 = getelementptr inbounds nuw i8, ptr %1, i64 80
  store i32 %7, ptr %8, align 8, !tbaa !47
  ret void
}